target datalayout = "e-m:e-p270:32:32-p271:32:32-p272:64:64-i64:64-i128:128-f80:128-n8:16:32:64-S128"
target triple = "x86_64-pc-linux-gnu"

@.str = private unnamed_addr constant [26 x i8] c"Parameter '%s' is invalid\00", align 1
@.str.1 = private unnamed_addr constant [6 x i8] c"width\00", align 1
@.str.2 = private unnamed_addr constant [7 x i8] c"height\00", align 1
@.str.3 = private unnamed_addr constant [7 x i8] c"format\00", align 1
@.str.4 = private unnamed_addr constant [6 x i8] c"pitch\00", align 1
@.str.28 = private unnamed_addr constant [27 x i8] c"width * bpp would overflow\00", align 1
@.str.29 = private unnamed_addr constant [30 x i8] c"aligning pitch would overflow\00", align 1
@.str.30 = private unnamed_addr constant [30 x i8] c"height * pitch would overflow\00", align 1

; Function Attrs: alwaysinline nounwind uwtable
define internal zeroext i1 @SDL_size_add_check_overflow_builtin(i64 noundef %0, i64 noundef %1, ptr noundef %2) #7 {
  %4 = alloca i64, align 8
  %5 = alloca i64, align 8
  %6 = alloca ptr, align 8
  store i64 %0, ptr %4, align 8
  store i64 %1, ptr %5, align 8
  store ptr %2, ptr %6, align 8
  %7 = load i64, ptr %4, align 8
  %8 = load i64, ptr %5, align 8
  %9 = load ptr, ptr %6, align 8
  %10 = call { i64, i1 } @llvm.uadd.with.overflow.i64(i64 %7, i64 %8)
  %11 = extractvalue { i64, i1 } %10, 1
  %12 = extractvalue { i64, i1 } %10, 0
  store i64 %12, ptr %9, align 8
  %13 = zext i1 %11 to i32
  %14 = icmp eq i32 %13, 0
  ret i1 %14
}

; Function Attrs: alwaysinline nounwind uwtable
define internal zeroext i1 @SDL_size_mul_check_overflow_builtin(i64 noundef %0, i64 noundef %1, ptr noundef %2) #7 {
  %4 = alloca i64, align 8
  %5 = alloca i64, align 8
  %6 = alloca ptr, align 8
  store i64 %0, ptr %4, align 8
  store i64 %1, ptr %5, align 8
  store ptr %2, ptr %6, align 8
  %7 = load i64, ptr %4, align 8
  %8 = load i64, ptr %5, align 8
  %9 = load ptr, ptr %6, align 8
  %10 = call { i64, i1 } @llvm.umul.with.overflow.i64(i64 %7, i64 %8)
  %11 = extractvalue { i64, i1 } %10, 1
  %12 = extractvalue { i64, i1 } %10, 0
  store i64 %12, ptr %9, align 8
  %13 = zext i1 %11 to i32
  %14 = icmp eq i32 %13, 0
  ret i1 %14
}

; Function Attrs: nounwind uwtable
define internal zeroext i1 @SDL_CalculateRGBSize(i32 noundef %0, i64 noundef %1, i64 noundef %2, ptr noundef %3, ptr noundef %4, i1 noundef zeroext %5) #0 {
  %7 = alloca i1, align 1
  %8 = alloca i32, align 4
  %9 = alloca i64, align 8
  %10 = alloca i64, align 8
  %11 = alloca ptr, align 8
  %12 = alloca ptr, align 8
  %13 = alloca i8, align 1
  store i32 %0, ptr %8, align 4
  store i64 %1, ptr %9, align 8
  store i64 %2, ptr %10, align 8
  store ptr %3, ptr %11, align 8
  store ptr %4, ptr %12, align 8
  %14 = zext i1 %5 to i8
  store i8 %14, ptr %13, align 1
  %15 = load i32, ptr %8, align 4
  %16 = icmp ne i32 %15, 0
  br i1 %16, label %17, label %23

17:                                               ; preds = %6
  %18 = load i32, ptr %8, align 4
  %19 = lshr i32 %18, 28
  %20 = and i32 %19, 15
  %21 = icmp ne i32 %20, 1
  br i1 %21, label %22, label %23

22:                                               ; preds = %17
  br label %27

23:                                               ; preds = %17, %6
  %24 = load i32, ptr %8, align 4
  %25 = lshr i32 %24, 8
  %26 = and i32 %25, 255
  br label %27

27:                                               ; preds = %23, %22
  %28 = phi i32 [ 0, %22 ], [ %26, %23 ]
  %29 = icmp uge i32 %28, 8
  br i1 %29, label %30, label %66

30:                                               ; preds = %27
  %31 = load i64, ptr %9, align 8
  %32 = load i32, ptr %8, align 4
  %33 = icmp ne i32 %32, 0
  br i1 %33, label %34, label %54

34:                                               ; preds = %30
  %35 = load i32, ptr %8, align 4
  %36 = lshr i32 %35, 28
  %37 = and i32 %36, 15
  %38 = icmp ne i32 %37, 1
  br i1 %38, label %39, label %54

39:                                               ; preds = %34
  %40 = load i32, ptr %8, align 4
  %41 = icmp eq i32 %40, 844715353
  br i1 %41, label %51, label %42

42:                                               ; preds = %39
  %43 = load i32, ptr %8, align 4
  %44 = icmp eq i32 %43, 1498831189
  br i1 %44, label %51, label %45

45:                                               ; preds = %42
  %46 = load i32, ptr %8, align 4
  %47 = icmp eq i32 %46, 1431918169
  br i1 %47, label %51, label %48

48:                                               ; preds = %45
  %49 = load i32, ptr %8, align 4
  %50 = icmp eq i32 %49, 808530000
  br label %51

51:                                               ; preds = %48, %45, %42, %39
  %52 = phi i1 [ true, %45 ], [ true, %42 ], [ true, %39 ], [ %50, %48 ]
  %53 = select i1 %52, i32 2, i32 1
  br label %58

54:                                               ; preds = %34, %30
  %55 = load i32, ptr %8, align 4
  %56 = lshr i32 %55, 0
  %57 = and i32 %56, 255
  br label %58

58:                                               ; preds = %54, %51
  %59 = phi i32 [ %53, %51 ], [ %57, %54 ]
  %60 = zext i32 %59 to i64
  %61 = load ptr, ptr %12, align 8
  %62 = call zeroext i1 @SDL_size_mul_check_overflow_builtin(i64 noundef %31, i64 noundef %60, ptr noundef %61)
  br i1 %62, label %65, label %63

63:                                               ; preds = %58
  %64 = call zeroext i1 (ptr, ...) @SDL_SetError_REAL(ptr noundef @.str.28)
  store i1 %64, ptr %7, align 1
  br label %121

65:                                               ; preds = %58
  br label %98

66:                                               ; preds = %27
  %67 = load i64, ptr %9, align 8
  %68 = load i32, ptr %8, align 4
  %69 = icmp ne i32 %68, 0
  br i1 %69, label %70, label %76

70:                                               ; preds = %66
  %71 = load i32, ptr %8, align 4
  %72 = lshr i32 %71, 28
  %73 = and i32 %72, 15
  %74 = icmp ne i32 %73, 1
  br i1 %74, label %75, label %76

75:                                               ; preds = %70
  br label %80

76:                                               ; preds = %70, %66
  %77 = load i32, ptr %8, align 4
  %78 = lshr i32 %77, 8
  %79 = and i32 %78, 255
  br label %80

80:                                               ; preds = %76, %75
  %81 = phi i32 [ 0, %75 ], [ %79, %76 ]
  %82 = zext i32 %81 to i64
  %83 = load ptr, ptr %12, align 8
  %84 = call zeroext i1 @SDL_size_mul_check_overflow_builtin(i64 noundef %67, i64 noundef %82, ptr noundef %83)
  br i1 %84, label %87, label %85

85:                                               ; preds = %80
  %86 = call zeroext i1 (ptr, ...) @SDL_SetError_REAL(ptr noundef @.str.28)
  store i1 %86, ptr %7, align 1
  br label %121

87:                                               ; preds = %80
  %88 = load ptr, ptr %12, align 8
  %89 = load i64, ptr %88, align 8
  %90 = load ptr, ptr %12, align 8
  %91 = call zeroext i1 @SDL_size_add_check_overflow_builtin(i64 noundef %89, i64 noundef 7, ptr noundef %90)
  br i1 %91, label %94, label %92

92:                                               ; preds = %87
  %93 = call zeroext i1 (ptr, ...) @SDL_SetError_REAL(ptr noundef @.str.29)
  store i1 %93, ptr %7, align 1
  br label %121

94:                                               ; preds = %87
  %95 = load ptr, ptr %12, align 8
  %96 = load i64, ptr %95, align 8
  %97 = udiv i64 %96, 8
  store i64 %97, ptr %95, align 8
  br label %98

98:                                               ; preds = %94, %65
  %99 = load i8, ptr %13, align 1, !range !3, !noundef !4
  %100 = trunc i8 %99 to i1
  br i1 %100, label %112, label %101

101:                                              ; preds = %98
  %102 = load ptr, ptr %12, align 8
  %103 = load i64, ptr %102, align 8
  %104 = load ptr, ptr %12, align 8
  %105 = call zeroext i1 @SDL_size_add_check_overflow_builtin(i64 noundef %103, i64 noundef 3, ptr noundef %104)
  br i1 %105, label %108, label %106

106:                                              ; preds = %101
  %107 = call zeroext i1 (ptr, ...) @SDL_SetError_REAL(ptr noundef @.str.29)
  store i1 %107, ptr %7, align 1
  br label %121

108:                                              ; preds = %101
  %109 = load ptr, ptr %12, align 8
  %110 = load i64, ptr %109, align 8
  %111 = and i64 %110, -4
  store i64 %111, ptr %109, align 8
  br label %112

112:                                              ; preds = %108, %98
  %113 = load i64, ptr %10, align 8
  %114 = load ptr, ptr %12, align 8
  %115 = load i64, ptr %114, align 8
  %116 = load ptr, ptr %11, align 8
  %117 = call zeroext i1 @SDL_size_mul_check_overflow_builtin(i64 noundef %113, i64 noundef %115, ptr noundef %116)
  br i1 %117, label %120, label %118

118:                                              ; preds = %112
  %119 = call zeroext i1 (ptr, ...) @SDL_SetError_REAL(ptr noundef @.str.30)
  store i1 %119, ptr %7, align 1
  br label %121

120:                                              ; preds = %112
  store i1 true, ptr %7, align 1
  br label %121

121:                                              ; preds = %120, %118, %106, %92, %85, %63
  %122 = load i1, ptr %7, align 1
  ret i1 %122
}

; Function Attrs: nounwind uwtable
define hidden zeroext i1 @SDL_CalculateSurfaceSize(i32 noundef %0, i32 noundef %1, i32 noundef %2, ptr noundef %3, ptr noundef %4, i1 noundef zeroext %5) #0 {
  %7 = alloca i1, align 1
  %8 = alloca i32, align 4
  %9 = alloca i32, align 4
  %10 = alloca i32, align 4
  %11 = alloca ptr, align 8
  %12 = alloca ptr, align 8
  %13 = alloca i8, align 1
  %14 = alloca i64, align 8
  %15 = alloca i64, align 8
  %16 = alloca i32, align 4
  store i32 %0, ptr %8, align 4
  store i32 %1, ptr %9, align 4
  store i32 %2, ptr %10, align 4
  store ptr %3, ptr %11, align 8
  store ptr %4, ptr %12, align 8
  %17 = zext i1 %5 to i8
  store i8 %17, ptr %13, align 1
  call void @llvm.lifetime.start.p0(i64 8, ptr %14) #8
  store i64 0, ptr %14, align 8
  call void @llvm.lifetime.start.p0(i64 8, ptr %15) #8
  store i64 0, ptr %15, align 8
  %18 = load ptr, ptr %11, align 8
  %19 = icmp ne ptr %18, null
  br i1 %19, label %20, label %22

20:                                               ; preds = %6
  %21 = load ptr, ptr %11, align 8
  store i64 0, ptr %21, align 8
  br label %22

22:                                               ; preds = %20, %6
  %23 = load ptr, ptr %12, align 8
  %24 = icmp ne ptr %23, null
  br i1 %24, label %25, label %27

25:                                               ; preds = %22
  %26 = load ptr, ptr %12, align 8
  store i64 0, ptr %26, align 8
  br label %27

27:                                               ; preds = %25, %22
  %28 = load i32, ptr %8, align 4
  %29 = icmp ne i32 %28, 0
  br i1 %29, label %30, label %46

30:                                               ; preds = %27
  %31 = load i32, ptr %8, align 4
  %32 = lshr i32 %31, 28
  %33 = and i32 %32, 15
  %34 = icmp ne i32 %33, 1
  br i1 %34, label %35, label %46

35:                                               ; preds = %30
  %36 = load i32, ptr %8, align 4
  %37 = icmp eq i32 %36, 1196444237
  br i1 %37, label %38, label %39

38:                                               ; preds = %35
  store i1 true, ptr %7, align 1
  store i32 1, ptr %16, align 4
  br label %70

39:                                               ; preds = %35
  %40 = load i32, ptr %8, align 4
  %41 = load i32, ptr %9, align 4
  %42 = load i32, ptr %10, align 4
  %43 = call zeroext i1 @SDL_CalculateYUVSize(i32 noundef %40, i32 noundef %41, i32 noundef %42, ptr noundef %15, ptr noundef %14)
  br i1 %43, label %45, label %44

44:                                               ; preds = %39
  store i1 false, ptr %7, align 1
  store i32 1, ptr %16, align 4
  br label %70

45:                                               ; preds = %39
  br label %57

46:                                               ; preds = %30, %27
  %47 = load i32, ptr %8, align 4
  %48 = load i32, ptr %9, align 4
  %49 = sext i32 %48 to i64
  %50 = load i32, ptr %10, align 4
  %51 = sext i32 %50 to i64
  %52 = load i8, ptr %13, align 1, !range !3, !noundef !4
  %53 = trunc i8 %52 to i1
  %54 = call zeroext i1 @SDL_CalculateRGBSize(i32 noundef %47, i64 noundef %49, i64 noundef %51, ptr noundef %15, ptr noundef %14, i1 noundef zeroext %53)
  br i1 %54, label %56, label %55

55:                                               ; preds = %46
  store i1 false, ptr %7, align 1
  store i32 1, ptr %16, align 4
  br label %70

56:                                               ; preds = %46
  br label %57

57:                                               ; preds = %56, %45
  %58 = load ptr, ptr %11, align 8
  %59 = icmp ne ptr %58, null
  br i1 %59, label %60, label %63

60:                                               ; preds = %57
  %61 = load i64, ptr %15, align 8
  %62 = load ptr, ptr %11, align 8
  store i64 %61, ptr %62, align 8
  br label %63

63:                                               ; preds = %60, %57
  %64 = load ptr, ptr %12, align 8
  %65 = icmp ne ptr %64, null
  br i1 %65, label %66, label %69

66:                                               ; preds = %63
  %67 = load i64, ptr %14, align 8
  %68 = load ptr, ptr %12, align 8
  store i64 %67, ptr %68, align 8
  br label %69

69:                                               ; preds = %66, %63
  store i1 true, ptr %7, align 1
  store i32 1, ptr %16, align 4
  br label %70

70:                                               ; preds = %69, %55, %44, %38
  call void @llvm.lifetime.end.p0(i64 8, ptr %15) #8
  call void @llvm.lifetime.end.p0(i64 8, ptr %14) #8
  %71 = load i1, ptr %7, align 1
  ret i1 %71
}

; Function Attrs: nounwind uwtable
define hidden ptr @SDL_CreateSurfaceFrom_REAL(i32 noundef %0, i32 noundef %1, i32 noundef %2, ptr noundef %3, i32 noundef %4) #0 {
  %6 = alloca ptr, align 8
  %7 = alloca i32, align 4
  %8 = alloca i32, align 4
  %9 = alloca i32, align 4
  %10 = alloca ptr, align 8
  %11 = alloca i32, align 4
  %12 = alloca i64, align 8
  %13 = alloca i32, align 4
  %14 = alloca ptr, align 8
  store i32 %0, ptr %7, align 4
  store i32 %1, ptr %8, align 4
  store i32 %2, ptr %9, align 4
  store ptr %3, ptr %10, align 8
  store i32 %4, ptr %11, align 4
  %15 = load i32, ptr %7, align 4
  %16 = icmp slt i32 %15, 0
  br i1 %16, label %17, label %19

17:                                               ; preds = %5
  %18 = call zeroext i1 (ptr, ...) @SDL_SetError_REAL(ptr noundef @.str, ptr noundef @.str.1)
  store ptr null, ptr %6, align 8
  br label %72

19:                                               ; preds = %5
  %20 = load i32, ptr %8, align 4
  %21 = icmp slt i32 %20, 0
  br i1 %21, label %22, label %24

22:                                               ; preds = %19
  %23 = call zeroext i1 (ptr, ...) @SDL_SetError_REAL(ptr noundef @.str, ptr noundef @.str.2)
  store ptr null, ptr %6, align 8
  br label %72

24:                                               ; preds = %19
  %25 = load i32, ptr %9, align 4
  %26 = icmp eq i32 %25, 0
  br i1 %26, label %27, label %29

27:                                               ; preds = %24
  %28 = call zeroext i1 (ptr, ...) @SDL_SetError_REAL(ptr noundef @.str, ptr noundef @.str.3)
  store ptr null, ptr %6, align 8
  br label %72

29:                                               ; preds = %24
  %30 = load i32, ptr %11, align 4
  %31 = icmp eq i32 %30, 0
  br i1 %31, label %32, label %36

32:                                               ; preds = %29
  %33 = load ptr, ptr %10, align 8
  %34 = icmp ne ptr %33, null
  br i1 %34, label %36, label %35

35:                                               ; preds = %32
  br label %56

36:                                               ; preds = %32, %29
  call void @llvm.lifetime.start.p0(i64 8, ptr %12) #8
  %37 = load i32, ptr %9, align 4
  %38 = load i32, ptr %7, align 4
  %39 = load i32, ptr %8, align 4
  %40 = call zeroext i1 @SDL_CalculateSurfaceSize(i32 noundef %37, i32 noundef %38, i32 noundef %39, ptr noundef null, ptr noundef %12, i1 noundef zeroext true)
  br i1 %40, label %42, label %41

41:                                               ; preds = %36
  store ptr null, ptr %6, align 8
  store i32 1, ptr %13, align 4
  br label %53

42:                                               ; preds = %36
  %43 = load i32, ptr %11, align 4
  %44 = icmp slt i32 %43, 0
  br i1 %44, label %50, label %45

45:                                               ; preds = %42
  %46 = load i32, ptr %11, align 4
  %47 = sext i32 %46 to i64
  %48 = load i64, ptr %12, align 8
  %49 = icmp ult i64 %47, %48
  br i1 %49, label %50, label %52

50:                                               ; preds = %45, %42
  %51 = call zeroext i1 (ptr, ...) @SDL_SetError_REAL(ptr noundef @.str, ptr noundef @.str.4)
  store ptr null, ptr %6, align 8
  store i32 1, ptr %13, align 4
  br label %53

52:                                               ; preds = %45
  store i32 0, ptr %13, align 4
  br label %53

53:                                               ; preds = %52, %50, %41
  call void @llvm.lifetime.end.p0(i64 8, ptr %12) #8
  %54 = load i32, ptr %13, align 4
  switch i32 %54, label %74 [
    i32 0, label %55
    i32 1, label %72
  ]

55:                                               ; preds = %53
  br label %56

56:                                               ; preds = %55, %35
  call void @llvm.lifetime.start.p0(i64 8, ptr %14) #8
  %57 = call noalias ptr @SDL_malloc_REAL(i64 noundef 280)
  store ptr %57, ptr %14, align 8
  %58 = load ptr, ptr %14, align 8
  %59 = icmp ne ptr %58, null
  br i1 %59, label %60, label %68

60:                                               ; preds = %56
  %61 = load ptr, ptr %14, align 8
  %62 = load i32, ptr %7, align 4
  %63 = load i32, ptr %8, align 4
  %64 = load i32, ptr %9, align 4
  %65 = load ptr, ptr %10, align 8
  %66 = load i32, ptr %11, align 4
  %67 = call zeroext i1 @SDL_InitializeSurface(ptr noundef %61, i32 noundef %62, i32 noundef %63, i32 noundef %64, i32 noundef 0, i32 noundef 0, ptr noundef %65, i32 noundef %66, i1 noundef zeroext false)
  br i1 %67, label %69, label %68

68:                                               ; preds = %60, %56
  store ptr null, ptr %6, align 8
  store i32 1, ptr %13, align 4
  br label %71

69:                                               ; preds = %60
  %70 = load ptr, ptr %14, align 8
  store ptr %70, ptr %6, align 8
  store i32 1, ptr %13, align 4
  br label %71

71:                                               ; preds = %69, %68
  call void @llvm.lifetime.end.p0(i64 8, ptr %14) #8
  br label %72

72:                                               ; preds = %71, %53, %27, %22, %17
  %73 = load ptr, ptr %6, align 8
  ret ptr %73

74:                                               ; preds = %53
  unreachable
}