; Function Attrs: nounwind uwtable
define hidden ptr @SDL_CreateSurfaceFrom_REAL(i32 noundef %0, i32 noundef %1, i32 noundef %2, ptr noundef %3, i32 noundef %4) local_unnamed_addr #2 {
  %6 = alloca i64, align 8
  %7 = alloca i64, align 8
  %8 = icmp slt i32 %0, 0
  br i1 %8, label %9, label %11

9:                                                ; preds = %5
  %10 = tail call zeroext i1 (ptr, ...) @SDL_SetError_REAL(ptr noundef nonnull @.str, ptr noundef nonnull @.str.1) #10
  br label %.thread

11:                                               ; preds = %5
  %12 = icmp slt i32 %1, 0
  br i1 %12, label %13, label %15

13:                                               ; preds = %11
  %14 = tail call zeroext i1 (ptr, ...) @SDL_SetError_REAL(ptr noundef nonnull @.str, ptr noundef nonnull @.str.2) #10
  br label %.thread

15:                                               ; preds = %11
  %16 = icmp eq i32 %2, 0
  br i1 %16, label %17, label %19

17:                                               ; preds = %15
  %18 = tail call zeroext i1 (ptr, ...) @SDL_SetError_REAL(ptr noundef nonnull @.str, ptr noundef nonnull @.str.3) #10
  br label %.thread

19:                                               ; preds = %15
  %20 = icmp ne i32 %4, 0
  %21 = icmp ne ptr %3, null
  %or.cond = or i1 %21, %20
  br i1 %or.cond, label %22, label %50

22:                                               ; preds = %19
  call void @llvm.lifetime.start.p0(i64 8, ptr nonnull %6) #10
  store i64 0, ptr %6, align 8
  call void @llvm.lifetime.start.p0(i64 8, ptr nonnull %7) #10
  store i64 0, ptr %7, align 8
  %.mask.i = and i32 %2, -268435456
  %.not25.i = icmp eq i32 %.mask.i, 268435456
  br i1 %.not25.i, label %.split18.i, label %40

.split18.i:                                       ; preds = %22
  %23 = zext nneg i32 %0 to i64
  %24 = zext nneg i32 %1 to i64
  %25 = and i32 %2, 63488
  %.not28.i = icmp eq i32 %25, 0
  br i1 %.not28.i, label %.critedge.i.i, label %26

26:                                               ; preds = %.split18.i
  %27 = and i32 %2, 255
  %28 = zext nneg i32 %27 to i64
  %29 = mul nuw nsw i64 %28, %23
  br label %36

.critedge.i.i:                                    ; preds = %.split18.i
  %30 = lshr i32 %2, 8
  %31 = and i32 %30, 7
  %32 = zext nneg i32 %31 to i64
  %33 = mul nuw nsw i64 %32, %23
  %34 = add nuw nsw i64 %33, 7
  %35 = lshr i64 %34, 3
  br label %36

36:                                               ; preds = %26, %.critedge.i.i
  %37 = phi i64 [ %29, %26 ], [ %35, %.critedge.i.i ]
  %38 = tail call { i64, i1 } @llvm.umul.with.overflow.i64(i64 range(i64 -2147483648, 2147483648) %24, i64 %37)
  %39 = extractvalue { i64, i1 } %38, 1
  br i1 %39, label %SDL_CalculateRGBSize.exit26.i, label %SDL_CalculateRGBSize.exit26.thread.i

40:                                               ; preds = %22
  %41 = icmp eq i32 %2, 1196444237
  br i1 %41, label %SDL_CalculateRGBSize.exit26.thread.i, label %42

42:                                               ; preds = %40
  %43 = call zeroext i1 @SDL_CalculateYUVSize(i32 noundef %2, i32 noundef %0, i32 noundef %1, ptr noundef nonnull %7, ptr noundef nonnull %6) #10
  br i1 %43, label %.SDL_CalculateRGBSize.exit26.thread.i_crit_edge, label %SDL_CalculateSurfaceSize.exit

.SDL_CalculateRGBSize.exit26.thread.i_crit_edge:  ; preds = %42
  %.pre = load i64, ptr %6, align 8
  br label %SDL_CalculateRGBSize.exit26.thread.i

SDL_CalculateRGBSize.exit26.i:                    ; preds = %36
  %44 = tail call zeroext i1 (ptr, ...) @SDL_SetError_REAL(ptr noundef nonnull @.str.30) #10
  br i1 %44, label %SDL_CalculateRGBSize.exit26.thread.i, label %SDL_CalculateSurfaceSize.exit

SDL_CalculateSurfaceSize.exit:                    ; preds = %42, %SDL_CalculateRGBSize.exit26.i
  call void @llvm.lifetime.end.p0(i64 8, ptr nonnull %7) #10
  call void @llvm.lifetime.end.p0(i64 8, ptr nonnull %6) #10
  br label %.thread

SDL_CalculateRGBSize.exit26.thread.i:             ; preds = %36, %SDL_CalculateRGBSize.exit26.i, %.SDL_CalculateRGBSize.exit26.thread.i_crit_edge, %40
  %.029.ph = phi i64 [ 0, %40 ], [ %.pre, %.SDL_CalculateRGBSize.exit26.thread.i_crit_edge ], [ %37, %SDL_CalculateRGBSize.exit26.i ], [ %37, %36 ]
  call void @llvm.lifetime.end.p0(i64 8, ptr nonnull %7) #10
  call void @llvm.lifetime.end.p0(i64 8, ptr nonnull %6) #10
  %45 = icmp slt i32 %4, 0
  %46 = zext nneg i32 %4 to i64
  %47 = icmp ugt i64 %.029.ph, %46
  %or.cond28 = select i1 %45, i1 true, i1 %47
  br i1 %or.cond28, label %48, label %50

48:                                               ; preds = %SDL_CalculateRGBSize.exit26.thread.i
  %49 = call zeroext i1 (ptr, ...) @SDL_SetError_REAL(ptr noundef nonnull @.str, ptr noundef nonnull @.str.4) #10
  br label %.thread

50:                                               ; preds = %SDL_CalculateRGBSize.exit26.thread.i, %19
  %51 = call noalias ptr @SDL_malloc_REAL(i64 noundef 280) #10
  %.not = icmp eq ptr %51, null
  br i1 %.not, label %.thread, label %52

52:                                               ; preds = %50
  %53 = call fastcc zeroext i1 @SDL_InitializeSurface(ptr noundef %51, i32 noundef %0, i32 noundef %1, i32 noundef %2, i32 noundef 0, i32 noundef 0, ptr noundef %3, i32 noundef %4, i1 noundef zeroext false)
  %spec.select = select i1 %53, ptr %51, ptr null
  br label %.thread

.thread:                                          ; preds = %SDL_CalculateSurfaceSize.exit, %48, %52, %50, %17, %13, %9
  %.0 = phi ptr [ null, %9 ], [ null, %13 ], [ null, %17 ], [ null, %50 ], [ %spec.select, %52 ], [ null, %48 ], [ null, %SDL_CalculateSurfaceSize.exit ]
  ret ptr %.0
}